target datalayout = "e-m:e-p270:32:32-p271:32:32-p272:64:64-i64:64-i128:128-f80:128-n8:16:32:64-S128"
target triple = "x86_64-pc-linux-gnu"

%struct.darktable_t = type { %struct.dt_codepath_t, i32, i32, ptr, ptr, ptr, ptr, ptr, ptr, ptr, ptr, ptr, ptr, ptr, ptr, ptr, ptr, ptr, ptr, ptr, ptr, ptr, ptr, ptr, ptr, ptr, ptr, ptr, ptr, ptr, [64 x %struct.dt_pthread_mutex_t], %struct.dt_pthread_mutex_t, %struct.dt_pthread_mutex_t, %struct.dt_pthread_mutex_t, %struct.dt_pthread_mutex_t, %struct.dt_pthread_mutex_t, ptr, ptr, ptr, ptr, ptr, ptr, ptr, ptr, ptr, ptr, ptr, ptr, ptr, %struct.dt_lua_state_t, ptr, double, ptr, i32, [47 x i32], i32, i32, ptr, ptr, %struct.dt_sys_resources_t, %struct.dt_backthumb_t, %struct.dt_gimp_t }
%struct.dt_codepath_t = type { i8, [3 x i8] }
%struct.dt_pthread_mutex_t = type { %union.pthread_mutex_t }
%union.pthread_mutex_t = type { %struct.__pthread_mutex_s }
%struct.__pthread_mutex_s = type { i32, i32, i32, i32, i32, i16, i16, %struct.__pthread_internal_list }
%struct.__pthread_internal_list = type { ptr, ptr }
%struct.dt_lua_state_t = type { i32 }
%struct.dt_sys_resources_t = type { i64, i64, ptr, ptr, i32 }
%struct.dt_backthumb_t = type { double, double, i32, i32, i32, i32 }
%struct.dt_gimp_t = type { i32, ptr, ptr, i32, i32 }
%struct.dt_dev_pixelpipe_t = type { %struct.dt_dev_pixelpipe_cache_t, i32, i64, ptr, i32, i32, float, i32, i32, [12 x i8], %struct.dt_iop_buffer_dsc_t, ptr, ptr, ptr, ptr, i32, i32, i32, i32, ptr, i64, i32, i32, float, float, float, i64, %struct.dt_pthread_mutex_t, %struct.dt_pthread_mutex_t, %struct.dt_pthread_mutex_t, i32, i32, i32, %struct.dt_dev_detail_mask_t, i32, i32, i32, i32, i32, i32, i32, i32, i32, i32, i32, i32, i32, i32, [8 x i8], %struct.dt_image_t, i32, ptr, i32, ptr, ptr, ptr, i32, ptr, i64, [8 x i8] }
%struct.dt_dev_pixelpipe_cache_t = type { i32, i64, i64, ptr, ptr, ptr, ptr, ptr, ptr, i64, i32, i64, i64, i32, i32, i32 }
%struct.dt_iop_buffer_dsc_t = type { i32, i32, i32, [6 x [6 x i8]], %struct.anon, [12 x i8], %struct.anon.0, [4 x float], i32, [12 x i8] }
%struct.anon = type { i16, i16 }
%struct.anon.0 = type { i32, [12 x i8], [4 x float] }
%struct.dt_dev_detail_mask_t = type { %struct.dt_iop_roi_t, i64, ptr }
%struct.dt_iop_roi_t = type { i32, i32, i32, i32, float }
%struct.dt_image_t = type { i32, i32, float, float, float, float, float, float, float, [64 x i8], [64 x i8], [128 x i8], [64 x i8], [64 x i8], [64 x i8], [64 x i8], i64, i32, %union.dt_image_correction_data_t, [64 x i8], [64 x i8], [64 x i8], [128 x i8], i32, [256 x i8], i32, i32, i32, i32, i32, i32, i32, i32, i32, i32, float, i32, i32, i32, i32, i32, i32, i64, i64, i64, i64, i32, [12 x i8], %struct.dt_iop_buffer_dsc_t, [9 x float], ptr, i32, i32, %struct.dt_image_raw_parameters_t, %struct.dt_image_geoloc_t, %struct._color_harmony_t, i16, [4 x i16], i32, i32, float, float, [4 x float], [4 x [3 x float]], [4 x float], ptr, ptr, i32, i32, [8 x i8] }
%union.dt_image_correction_data_t = type { %struct.anon.2 }
%struct.anon.2 = type { i32, float, [11 x float], [11 x float], [11 x float], [11 x float], [11 x float] }
%struct.dt_image_raw_parameters_t = type { i32 }
%struct.dt_image_geoloc_t = type { double, double, double }
%struct._color_harmony_t = type { i32, i32, i32 }

@darktable = external global %struct.darktable_t, align 8
@.str.13 = private unnamed_addr constant [13 x i8] c"cache report\00", align 1
@.str.14 = private unnamed_addr constant [101 x i8] c" %i lines (important=%i, used=%i, invalid=%i). Using %iMB, limit=%iMB. Hits/run=%.2f. Hits/test=%.3f\00", align 1

; Function Attrs: inlinehint nounwind uwtable
define internal i32 @_to_mb(i64 noundef %0) #6 {
  %2 = alloca i64, align 8
  store i64 %0, ptr %2, align 8, !tbaa !13
  %3 = load i64, ptr %2, align 8, !tbaa !13
  %4 = add i64 %3, 524288
  %5 = udiv i64 %4, 1024
  %6 = udiv i64 %5, 1024
  %7 = trunc i64 %6 to i32
  ret i32 %7
}

; Function Attrs: nounwind uwtable
define internal void @_cline_stats(ptr noundef %0) #0 {
  %2 = alloca ptr, align 8
  %3 = alloca i32, align 4
  store ptr %0, ptr %2, align 8, !tbaa !15
  %4 = load ptr, ptr %2, align 8, !tbaa !15
  %5 = getelementptr inbounds nuw %struct.dt_dev_pixelpipe_cache_t, ptr %4, i32 0, i32 15
  store i32 0, ptr %5, align 8, !tbaa !147
  %6 = load ptr, ptr %2, align 8, !tbaa !15
  %7 = getelementptr inbounds nuw %struct.dt_dev_pixelpipe_cache_t, ptr %6, i32 0, i32 14
  store i32 0, ptr %7, align 4, !tbaa !149
  %8 = load ptr, ptr %2, align 8, !tbaa !15
  %9 = getelementptr inbounds nuw %struct.dt_dev_pixelpipe_cache_t, ptr %8, i32 0, i32 13
  store i32 0, ptr %9, align 8, !tbaa !148
  call void @llvm.lifetime.start.p0(i64 4, ptr %3) #17
  store i32 2, ptr %3, align 4, !tbaa !11
  br label %10

10:                                               ; preds = %69, %1
  %11 = load i32, ptr %3, align 4, !tbaa !11
  %12 = load ptr, ptr %2, align 8, !tbaa !15
  %13 = getelementptr inbounds nuw %struct.dt_dev_pixelpipe_cache_t, ptr %12, i32 0, i32 0
  %14 = load i32, ptr %13, align 8, !tbaa !17
  %15 = icmp slt i32 %11, %14
  br i1 %15, label %17, label %16

16:                                               ; preds = %10
  call void @llvm.lifetime.end.p0(i64 4, ptr %3) #17
  br label %72

17:                                               ; preds = %10
  %18 = load ptr, ptr %2, align 8, !tbaa !15
  %19 = getelementptr inbounds nuw %struct.dt_dev_pixelpipe_cache_t, ptr %18, i32 0, i32 3
  %20 = load ptr, ptr %19, align 8, !tbaa !27
  %21 = load i32, ptr %3, align 4, !tbaa !11
  %22 = sext i32 %21 to i64
  %23 = getelementptr inbounds ptr, ptr %20, i64 %22
  %24 = load ptr, ptr %23, align 8, !tbaa !33
  %25 = icmp ne ptr %24, null
  br i1 %25, label %26, label %31

26:                                               ; preds = %17
  %27 = load ptr, ptr %2, align 8, !tbaa !15
  %28 = getelementptr inbounds nuw %struct.dt_dev_pixelpipe_cache_t, ptr %27, i32 0, i32 13
  %29 = load i32, ptr %28, align 8, !tbaa !148
  %30 = add i32 %29, 1
  store i32 %30, ptr %28, align 8, !tbaa !148
  br label %31

31:                                               ; preds = %26, %17
  %32 = load ptr, ptr %2, align 8, !tbaa !15
  %33 = getelementptr inbounds nuw %struct.dt_dev_pixelpipe_cache_t, ptr %32, i32 0, i32 3
  %34 = load ptr, ptr %33, align 8, !tbaa !27
  %35 = load i32, ptr %3, align 4, !tbaa !11
  %36 = sext i32 %35 to i64
  %37 = getelementptr inbounds ptr, ptr %34, i64 %36
  %38 = load ptr, ptr %37, align 8, !tbaa !33
  %39 = icmp ne ptr %38, null
  br i1 %39, label %40, label %54

40:                                               ; preds = %31
  %41 = load ptr, ptr %2, align 8, !tbaa !15
  %42 = getelementptr inbounds nuw %struct.dt_dev_pixelpipe_cache_t, ptr %41, i32 0, i32 6
  %43 = load ptr, ptr %42, align 8, !tbaa !30
  %44 = load i32, ptr %3, align 4, !tbaa !11
  %45 = sext i32 %44 to i64
  %46 = getelementptr inbounds i64, ptr %43, i64 %45
  %47 = load i64, ptr %46, align 8, !tbaa !13
  %48 = icmp eq i64 %47, 0
  br i1 %48, label %49, label %54

49:                                               ; preds = %40
  %50 = load ptr, ptr %2, align 8, !tbaa !15
  %51 = getelementptr inbounds nuw %struct.dt_dev_pixelpipe_cache_t, ptr %50, i32 0, i32 14
  %52 = load i32, ptr %51, align 4, !tbaa !149
  %53 = add i32 %52, 1
  store i32 %53, ptr %51, align 4, !tbaa !149
  br label %54

54:                                               ; preds = %49, %40, %31
  %55 = load ptr, ptr %2, align 8, !tbaa !15
  %56 = getelementptr inbounds nuw %struct.dt_dev_pixelpipe_cache_t, ptr %55, i32 0, i32 7
  %57 = load ptr, ptr %56, align 8, !tbaa !31
  %58 = load i32, ptr %3, align 4, !tbaa !11
  %59 = sext i32 %58 to i64
  %60 = getelementptr inbounds i32, ptr %57, i64 %59
  %61 = load i32, ptr %60, align 4, !tbaa !11
  %62 = icmp slt i32 %61, 0
  br i1 %62, label %63, label %68

63:                                               ; preds = %54
  %64 = load ptr, ptr %2, align 8, !tbaa !15
  %65 = getelementptr inbounds nuw %struct.dt_dev_pixelpipe_cache_t, ptr %64, i32 0, i32 15
  %66 = load i32, ptr %65, align 8, !tbaa !147
  %67 = add i32 %66, 1
  store i32 %67, ptr %65, align 8, !tbaa !147
  br label %68

68:                                               ; preds = %63, %54
  br label %69

69:                                               ; preds = %68
  %70 = load i32, ptr %3, align 4, !tbaa !11
  %71 = add nsw i32 %70, 1
  store i32 %71, ptr %3, align 4, !tbaa !11
  br label %10

72:                                               ; preds = %16
  ret void
}

; Function Attrs: nounwind uwtable
define void @dt_dev_pixelpipe_cache_report(ptr noundef %0) #0 {
  %2 = alloca ptr, align 8
  %3 = alloca ptr, align 8
  store ptr %0, ptr %2, align 8, !tbaa !6
  call void @llvm.lifetime.start.p0(i64 8, ptr %3) #17
  %4 = load ptr, ptr %2, align 8, !tbaa !6
  %5 = getelementptr inbounds nuw %struct.dt_dev_pixelpipe_t, ptr %4, i32 0, i32 0
  store ptr %5, ptr %3, align 8, !tbaa !15
  %6 = load ptr, ptr %3, align 8, !tbaa !15
  call void @_cline_stats(ptr noundef %6)
  br label %7

7:                                                ; preds = %1
  %8 = load i32, ptr getelementptr inbounds nuw (%struct.darktable_t, ptr @darktable, i32 0, i32 2), align 8, !tbaa !54
  %9 = and i32 33554944, %8
  %10 = icmp ne i32 %9, 0
  br i1 %10, label %11, label %58

11:                                               ; preds = %7
  %12 = load i32, ptr getelementptr inbounds nuw (%struct.darktable_t, ptr @darktable, i32 0, i32 2), align 8, !tbaa !54
  %13 = xor i32 %12, -1
  %14 = and i32 0, %13
  %15 = icmp ne i32 %14, 0
  br i1 %15, label %58, label %16

16:                                               ; preds = %11
  %17 = load ptr, ptr %2, align 8, !tbaa !6
  %18 = load ptr, ptr %3, align 8, !tbaa !15
  %19 = getelementptr inbounds nuw %struct.dt_dev_pixelpipe_cache_t, ptr %18, i32 0, i32 0
  %20 = load i32, ptr %19, align 8, !tbaa !17
  %21 = load ptr, ptr %3, align 8, !tbaa !15
  %22 = getelementptr inbounds nuw %struct.dt_dev_pixelpipe_cache_t, ptr %21, i32 0, i32 15
  %23 = load i32, ptr %22, align 8, !tbaa !147
  %24 = load ptr, ptr %3, align 8, !tbaa !15
  %25 = getelementptr inbounds nuw %struct.dt_dev_pixelpipe_cache_t, ptr %24, i32 0, i32 13
  %26 = load i32, ptr %25, align 8, !tbaa !148
  %27 = load ptr, ptr %3, align 8, !tbaa !15
  %28 = getelementptr inbounds nuw %struct.dt_dev_pixelpipe_cache_t, ptr %27, i32 0, i32 14
  %29 = load i32, ptr %28, align 4, !tbaa !149
  %30 = load ptr, ptr %3, align 8, !tbaa !15
  %31 = getelementptr inbounds nuw %struct.dt_dev_pixelpipe_cache_t, ptr %30, i32 0, i32 1
  %32 = load i64, ptr %31, align 8, !tbaa !25
  %33 = call i32 @_to_mb(i64 noundef %32)
  %34 = load ptr, ptr %3, align 8, !tbaa !15
  %35 = getelementptr inbounds nuw %struct.dt_dev_pixelpipe_cache_t, ptr %34, i32 0, i32 2
  %36 = load i64, ptr %35, align 8, !tbaa !26
  %37 = call i32 @_to_mb(i64 noundef %36)
  %38 = load ptr, ptr %3, align 8, !tbaa !15
  %39 = getelementptr inbounds nuw %struct.dt_dev_pixelpipe_cache_t, ptr %38, i32 0, i32 12
  %40 = load i64, ptr %39, align 8, !tbaa !24
  %41 = uitofp i64 %40 to double
  %42 = load ptr, ptr %2, align 8, !tbaa !6
  %43 = getelementptr inbounds nuw %struct.dt_dev_pixelpipe_t, ptr %42, i32 0, i32 2
  %44 = load i64, ptr %43, align 16, !tbaa !86
  %45 = uitofp i64 %44 to double
  %46 = call reassoc nsz arcp contract afn double @llvm.maxnum.f64(double 1.000000e+00, double %45)
  %47 = fdiv reassoc nsz arcp contract afn double %41, %46
  %48 = load ptr, ptr %3, align 8, !tbaa !15
  %49 = getelementptr inbounds nuw %struct.dt_dev_pixelpipe_cache_t, ptr %48, i32 0, i32 12
  %50 = load i64, ptr %49, align 8, !tbaa !24
  %51 = uitofp i64 %50 to double
  %52 = load ptr, ptr %3, align 8, !tbaa !15
  %53 = getelementptr inbounds nuw %struct.dt_dev_pixelpipe_cache_t, ptr %52, i32 0, i32 11
  %54 = load i64, ptr %53, align 8, !tbaa !22
  %55 = uitofp i64 %54 to double
  %56 = call reassoc nsz arcp contract afn double @llvm.maxnum.f64(double 1.000000e+00, double %55)
  %57 = fdiv reassoc nsz arcp contract afn double %51, %56
  call void (ptr, ptr, ptr, i32, ptr, ptr, ptr, ...) @dt_print_pipe_ext(ptr noundef @.str.13, ptr noundef %17, ptr noundef null, i32 noundef -2, ptr noundef null, ptr noundef null, ptr noundef @.str.14, i32 noundef %20, i32 noundef %23, i32 noundef %26, i32 noundef %29, i32 noundef %33, i32 noundef %37, double noundef %47, double noundef %57)
  br label %58

58:                                               ; preds = %16, %11, %7
  br label %59

59:                                               ; preds = %58
  br label %60

60:                                               ; preds = %59
  call void @llvm.lifetime.end.p0(i64 8, ptr %3) #17
  ret void
}