; Function Attrs: nounwind uwtable
define void @dt_dev_pixelpipe_cache_report(ptr noundef initializes((104, 116)) %0) local_unnamed_addr #0 {
  %2 = getelementptr inbounds nuw i8, ptr %0, i64 112
  store i32 0, ptr %2, align 8, !tbaa !134
  %3 = getelementptr inbounds nuw i8, ptr %0, i64 108
  store i32 0, ptr %3, align 4, !tbaa !135
  %4 = getelementptr inbounds nuw i8, ptr %0, i64 104
  store i32 0, ptr %4, align 8, !tbaa !136
  %5 = load i32, ptr %0, align 8, !tbaa !6
  %6 = icmp sgt i32 %5, 2
  br i1 %6, label %.lr.ph.i, label %_cline_stats.exit

.lr.ph.i:                                         ; preds = %1
  %7 = getelementptr inbounds nuw i8, ptr %0, i64 24
  %8 = load ptr, ptr %7, align 8, !tbaa !19
  %9 = getelementptr inbounds nuw i8, ptr %0, i64 48
  %10 = getelementptr inbounds nuw i8, ptr %0, i64 56
  %11 = load ptr, ptr %10, align 8, !tbaa !23
  %wide.trip.count.i = zext nneg i32 %5 to i64
  br label %12

12:                                               ; preds = %33, %.lr.ph.i
  %13 = phi i32 [ 0, %.lr.ph.i ], [ %34, %33 ]
  %14 = phi i32 [ 0, %.lr.ph.i ], [ %26, %33 ]
  %15 = phi i32 [ 0, %.lr.ph.i ], [ %27, %33 ]
  %indvars.iv.i = phi i64 [ 2, %.lr.ph.i ], [ %indvars.iv.next.i, %33 ]
  %16 = getelementptr inbounds nuw ptr, ptr %8, i64 %indvars.iv.i
  %17 = load ptr, ptr %16, align 8, !tbaa !27
  %.not.i = icmp eq ptr %17, null
  br i1 %.not.i, label %.thread.i, label %18

18:                                               ; preds = %12
  %19 = add i32 %15, 1
  store i32 %19, ptr %4, align 8, !tbaa !136
  %20 = load ptr, ptr %9, align 8, !tbaa !22
  %21 = getelementptr inbounds nuw i64, ptr %20, i64 %indvars.iv.i
  %22 = load i64, ptr %21, align 8, !tbaa !25
  %23 = icmp eq i64 %22, 0
  br i1 %23, label %24, label %.thread.i

24:                                               ; preds = %18
  %25 = add i32 %14, 1
  store i32 %25, ptr %3, align 4, !tbaa !135
  br label %.thread.i

.thread.i:                                        ; preds = %24, %18, %12
  %26 = phi i32 [ %14, %12 ], [ %25, %24 ], [ %14, %18 ]
  %27 = phi i32 [ %15, %12 ], [ %19, %24 ], [ %19, %18 ]
  %28 = getelementptr inbounds nuw i32, ptr %11, i64 %indvars.iv.i
  %29 = load i32, ptr %28, align 4, !tbaa !26
  %30 = icmp slt i32 %29, 0
  br i1 %30, label %31, label %33

31:                                               ; preds = %.thread.i
  %32 = add i32 %13, 1
  store i32 %32, ptr %2, align 8, !tbaa !134
  br label %33

33:                                               ; preds = %31, %.thread.i
  %34 = phi i32 [ %13, %.thread.i ], [ %32, %31 ]
  %indvars.iv.next.i = add nuw nsw i64 %indvars.iv.i, 1
  %exitcond.not.i = icmp eq i64 %indvars.iv.next.i, %wide.trip.count.i
  br i1 %exitcond.not.i, label %_cline_stats.exit, label %12

_cline_stats.exit:                                ; preds = %33, %1
  %35 = phi i32 [ 0, %1 ], [ %26, %33 ]
  %36 = phi i32 [ 0, %1 ], [ %27, %33 ]
  %37 = phi i32 [ 0, %1 ], [ %34, %33 ]
  %38 = load i32, ptr getelementptr inbounds nuw (i8, ptr @darktable, i64 8), align 8, !tbaa !48
  %39 = and i32 %38, 33554944
  %.not = icmp eq i32 %39, 0
  br i1 %.not, label %64, label %40

40:                                               ; preds = %_cline_stats.exit
  %41 = getelementptr inbounds nuw i8, ptr %0, i64 8
  %42 = load i64, ptr %41, align 8, !tbaa !17
  %43 = add i64 %42, 524288
  %44 = lshr i64 %43, 20
  %45 = trunc i64 %44 to i32
  %46 = getelementptr inbounds nuw i8, ptr %0, i64 16
  %47 = load i64, ptr %46, align 8, !tbaa !18
  %48 = add i64 %47, 524288
  %49 = lshr i64 %48, 20
  %50 = trunc i64 %49 to i32
  %51 = getelementptr inbounds nuw i8, ptr %0, i64 96
  %52 = load i64, ptr %51, align 8, !tbaa !80
  %53 = uitofp i64 %52 to double
  %54 = getelementptr inbounds nuw i8, ptr %0, i64 128
  %55 = load i64, ptr %54, align 16, !tbaa !81
  %56 = uitofp i64 %55 to double
  %57 = tail call reassoc nsz arcp contract afn double @llvm.maxnum.f64(double %56, double 1.000000e+00)
  %58 = fdiv reassoc nsz arcp contract afn double %53, %57
  %59 = getelementptr inbounds nuw i8, ptr %0, i64 88
  %60 = load i64, ptr %59, align 8, !tbaa !82
  %61 = uitofp i64 %60 to double
  %62 = tail call reassoc nsz arcp contract afn double @llvm.maxnum.f64(double %61, double 1.000000e+00)
  %63 = fdiv reassoc nsz arcp contract afn double %53, %62
  tail call void (ptr, ptr, ptr, i32, ptr, ptr, ptr, ...) @dt_print_pipe_ext(ptr noundef nonnull @.str.13, ptr noundef nonnull %0, ptr noundef null, i32 noundef -2, ptr noundef null, ptr noundef null, ptr noundef nonnull @.str.14, i32 noundef %5, i32 noundef %37, i32 noundef %36, i32 noundef %35, i32 noundef %45, i32 noundef %50, double noundef %58, double noundef %63)
  br label %64

64:                                               ; preds = %40, %_cline_stats.exit
  ret void
}